target datalayout = "e-m:e-p270:32:32-p271:32:32-p272:64:64-i64:64-i128:128-f80:128-n8:16:32:64-S128"
target triple = "x86_64-pc-linux-gnu"

%"class.llvm::MCOperandInfo" = type { i16, i8, i8, i16 }

; Function Attrs: mustprogress nounwind uwtable
define dso_local noundef i32 @_ZN4llvm3X8622getVectorRegisterWidthERKNS_13MCOperandInfoE(ptr noundef nonnull align 2 dereferenceable(6) %0) #0 {
  %2 = alloca i32, align 4
  %3 = alloca ptr, align 8
  store ptr %0, ptr %3, align 8
  %4 = load ptr, ptr %3, align 8
  %5 = getelementptr inbounds nuw %"class.llvm::MCOperandInfo", ptr %4, i32 0, i32 0
  %6 = load i16, ptr %5, align 2
  %7 = sext i16 %6 to i32
  %8 = icmp eq i32 %7, 128
  br i1 %8, label %15, label %9

9:                                                ; preds = %1
  %10 = load ptr, ptr %3, align 8
  %11 = getelementptr inbounds nuw %"class.llvm::MCOperandInfo", ptr %10, i32 0, i32 0
  %12 = load i16, ptr %11, align 2
  %13 = sext i16 %12 to i32
  %14 = icmp eq i32 %13, 127
  br i1 %14, label %15, label %16

15:                                               ; preds = %9, %1
  store i32 128, ptr %2, align 4
  br label %37

16:                                               ; preds = %9
  %17 = load ptr, ptr %3, align 8
  %18 = getelementptr inbounds nuw %"class.llvm::MCOperandInfo", ptr %17, i32 0, i32 0
  %19 = load i16, ptr %18, align 2
  %20 = sext i16 %19 to i32
  %21 = icmp eq i32 %20, 130
  br i1 %21, label %28, label %22

22:                                               ; preds = %16
  %23 = load ptr, ptr %3, align 8
  %24 = getelementptr inbounds nuw %"class.llvm::MCOperandInfo", ptr %23, i32 0, i32 0
  %25 = load i16, ptr %24, align 2
  %26 = sext i16 %25 to i32
  %27 = icmp eq i32 %26, 129
  br i1 %27, label %28, label %29

28:                                               ; preds = %22, %16
  store i32 256, ptr %2, align 4
  br label %37

29:                                               ; preds = %22
  %30 = load ptr, ptr %3, align 8
  %31 = getelementptr inbounds nuw %"class.llvm::MCOperandInfo", ptr %30, i32 0, i32 0
  %32 = load i16, ptr %31, align 2
  %33 = sext i16 %32 to i32
  %34 = icmp eq i32 %33, 131
  br i1 %34, label %35, label %36

35:                                               ; preds = %29
  store i32 512, ptr %2, align 4
  br label %37

36:                                               ; preds = %29
  unreachable

37:                                               ; preds = %35, %28, %15
  %38 = load i32, ptr %2, align 4
  ret i32 %38
}