; Function Attrs: mustprogress nofree norecurse nosync nounwind willreturn memory(argmem: read, inaccessiblemem: write) uwtable
define dso_local noundef range(i32 128, 513) i32 @_ZN4llvm3X8622getVectorRegisterWidthERKNS_13MCOperandInfoE(ptr noundef nonnull readonly align 2 captures(none) dereferenceable(6) %0) local_unnamed_addr #10 {
  %2 = load i16, ptr %0, align 2
  %switch.tableidx = add i16 %2, -127
  %3 = icmp ult i16 %switch.tableidx, 4
  br i1 %3, label %switch.lookup, label %4

4:                                                ; preds = %1
  %5 = icmp eq i16 %2, 131
  tail call void @llvm.assume(i1 %5)
  br label %7

switch.lookup:                                    ; preds = %1
  %6 = zext nneg i16 %switch.tableidx to i64
  %switch.gep = getelementptr inbounds nuw [4 x i32], ptr @switch.table._ZN4llvm3X8622getVectorRegisterWidthERKNS_13MCOperandInfoE, i64 0, i64 %6
  %switch.load = load i32, ptr %switch.gep, align 4
  br label %7

7:                                                ; preds = %switch.lookup, %4
  %.0 = phi i32 [ 512, %4 ], [ %switch.load, %switch.lookup ]
  ret i32 %.0
}